; Function Attrs: inlinehint nounwind uwtable
define internal fastcc void @Vec_StrPutS(ptr noundef captures(none) %0, ptr noundef readonly captures(none) %1) unnamed_addr #9 {
  %3 = load i8, ptr %1, align 1, !tbaa !62
  %.not12 = icmp eq i8 %3, 0
  br i1 %.not12, label %._crit_edge, label %.lr.ph

.lr.ph:                                           ; preds = %2
  %4 = getelementptr inbounds nuw i8, ptr %0, i64 4
  %.phi.trans.insert.i = getelementptr inbounds nuw i8, ptr %0, i64 8
  br label %5

5:                                                ; preds = %.lr.ph, %Vec_StrPush.exit
  %6 = phi i8 [ %3, %.lr.ph ], [ %35, %Vec_StrPush.exit ]
  %.013 = phi ptr [ %1, %.lr.ph ], [ %7, %Vec_StrPush.exit ]
  %7 = getelementptr inbounds nuw i8, ptr %.013, i64 1
  %8 = load i32, ptr %4, align 4, !tbaa !98
  %9 = load i32, ptr %0, align 8, !tbaa !97
  %10 = icmp eq i32 %8, %9
  br i1 %10, label %11, label %.Vec_StrGrow.exit10_crit_edge.i

.Vec_StrGrow.exit10_crit_edge.i:                  ; preds = %5
  %.pre.i = load ptr, ptr %.phi.trans.insert.i, align 8, !tbaa !59
  br label %Vec_StrPush.exit

11:                                               ; preds = %5
  %12 = icmp slt i32 %8, 16
  br i1 %12, label %13, label %20

13:                                               ; preds = %11
  %14 = load ptr, ptr %.phi.trans.insert.i, align 8, !tbaa !59
  %.not9.i.i = icmp eq ptr %14, null
  br i1 %.not9.i.i, label %17, label %15

15:                                               ; preds = %13
  %16 = tail call dereferenceable_or_null(16) ptr @realloc(ptr noundef nonnull %14, i64 noundef 16) #22
  br label %Vec_StrGrow.exit.i

17:                                               ; preds = %13
  %18 = tail call noalias dereferenceable_or_null(16) ptr @malloc(i64 noundef 16) #21
  br label %Vec_StrGrow.exit.i

Vec_StrGrow.exit.i:                               ; preds = %17, %15
  %19 = phi ptr [ %16, %15 ], [ %18, %17 ]
  store ptr %19, ptr %.phi.trans.insert.i, align 8, !tbaa !59
  store i32 16, ptr %0, align 8, !tbaa !97
  br label %Vec_StrPush.exit

20:                                               ; preds = %11
  %21 = shl nuw nsw i32 %8, 1
  %22 = load ptr, ptr %.phi.trans.insert.i, align 8, !tbaa !59
  %.not9.i9.i = icmp eq ptr %22, null
  %23 = zext nneg i32 %21 to i64
  br i1 %.not9.i9.i, label %26, label %24

24:                                               ; preds = %20
  %25 = tail call ptr @realloc(ptr noundef nonnull %22, i64 noundef %23) #22
  br label %28

26:                                               ; preds = %20
  %27 = tail call noalias ptr @malloc(i64 noundef %23) #21
  br label %28

28:                                               ; preds = %26, %24
  %29 = phi ptr [ %25, %24 ], [ %27, %26 ]
  store ptr %29, ptr %.phi.trans.insert.i, align 8, !tbaa !59
  store i32 %21, ptr %0, align 8, !tbaa !97
  br label %Vec_StrPush.exit

Vec_StrPush.exit:                                 ; preds = %.Vec_StrGrow.exit10_crit_edge.i, %Vec_StrGrow.exit.i, %28
  %30 = phi ptr [ %.pre.i, %.Vec_StrGrow.exit10_crit_edge.i ], [ %29, %28 ], [ %19, %Vec_StrGrow.exit.i ]
  %31 = load i32, ptr %4, align 4, !tbaa !98
  %32 = add nsw i32 %31, 1
  store i32 %32, ptr %4, align 4, !tbaa !98
  %33 = sext i32 %31 to i64
  %34 = getelementptr inbounds i8, ptr %30, i64 %33
  store i8 %6, ptr %34, align 1, !tbaa !62
  %35 = load i8, ptr %7, align 1, !tbaa !62
  %.not = icmp eq i8 %35, 0
  br i1 %.not, label %._crit_edge, label %5, !llvm.loop !106

._crit_edge:                                      ; preds = %Vec_StrPush.exit, %2
  %36 = getelementptr inbounds nuw i8, ptr %0, i64 4
  %37 = load i32, ptr %36, align 4, !tbaa !98
  %38 = load i32, ptr %0, align 8, !tbaa !97
  %39 = icmp eq i32 %37, %38
  br i1 %39, label %40, label %.Vec_StrGrow.exit10_crit_edge.i5

.Vec_StrGrow.exit10_crit_edge.i5:                 ; preds = %._crit_edge
  %.phi.trans.insert.i6 = getelementptr inbounds nuw i8, ptr %0, i64 8
  %.pre.i7 = load ptr, ptr %.phi.trans.insert.i6, align 8, !tbaa !59
  br label %Vec_StrPush.exit11

40:                                               ; preds = %._crit_edge
  %41 = icmp slt i32 %37, 16
  br i1 %41, label %42, label %50

42:                                               ; preds = %40
  %43 = getelementptr inbounds nuw i8, ptr %0, i64 8
  %44 = load ptr, ptr %43, align 8, !tbaa !59
  %.not9.i.i9 = icmp eq ptr %44, null
  br i1 %.not9.i.i9, label %47, label %45

45:                                               ; preds = %42
  %46 = tail call dereferenceable_or_null(16) ptr @realloc(ptr noundef nonnull %44, i64 noundef 16) #22
  br label %Vec_StrGrow.exit.i10

47:                                               ; preds = %42
  %48 = tail call noalias dereferenceable_or_null(16) ptr @malloc(i64 noundef 16) #21
  br label %Vec_StrGrow.exit.i10

Vec_StrGrow.exit.i10:                             ; preds = %47, %45
  %49 = phi ptr [ %46, %45 ], [ %48, %47 ]
  store ptr %49, ptr %43, align 8, !tbaa !59
  store i32 16, ptr %0, align 8, !tbaa !97
  br label %Vec_StrPush.exit11

50:                                               ; preds = %40
  %51 = shl nuw nsw i32 %37, 1
  %52 = getelementptr inbounds nuw i8, ptr %0, i64 8
  %53 = load ptr, ptr %52, align 8, !tbaa !59
  %.not9.i9.i8 = icmp eq ptr %53, null
  %54 = zext nneg i32 %51 to i64
  br i1 %.not9.i9.i8, label %57, label %55

55:                                               ; preds = %50
  %56 = tail call ptr @realloc(ptr noundef nonnull %53, i64 noundef %54) #22
  br label %59

57:                                               ; preds = %50
  %58 = tail call noalias ptr @malloc(i64 noundef %54) #21
  br label %59

59:                                               ; preds = %57, %55
  %60 = phi ptr [ %56, %55 ], [ %58, %57 ]
  store ptr %60, ptr %52, align 8, !tbaa !59
  store i32 %51, ptr %0, align 8, !tbaa !97
  br label %Vec_StrPush.exit11

Vec_StrPush.exit11:                               ; preds = %.Vec_StrGrow.exit10_crit_edge.i5, %Vec_StrGrow.exit.i10, %59
  %61 = phi ptr [ %.pre.i7, %.Vec_StrGrow.exit10_crit_edge.i5 ], [ %60, %59 ], [ %49, %Vec_StrGrow.exit.i10 ]
  %62 = load i32, ptr %36, align 4, !tbaa !98
  %63 = add nsw i32 %62, 1
  store i32 %63, ptr %36, align 4, !tbaa !98
  %64 = sext i32 %62 to i64
  %65 = getelementptr inbounds i8, ptr %61, i64 %64
  store i8 0, ptr %65, align 1, !tbaa !62
  ret void
}